target datalayout = "e-m:e-p270:32:32-p271:32:32-p272:64:64-i64:64-i128:128-f80:128-n8:16:32:64-S128"
target triple = "x86_64-pc-linux-gnu"

%struct.PutBitContext = type { i32, i32, ptr, ptr, ptr }

@.str.9 = private unnamed_addr constant [43 x i8] c"Internal error, put_bits buffer too small\0A\00", align 1
@ff_log2_tab = external constant [256 x i8], align 16

; Function Attrs: alwaysinline nounwind willreturn memory(none) uwtable
define internal i32 @av_bswap32(i32 noundef %0) #7 {
  %2 = alloca i32, align 4
  store i32 %0, ptr %2, align 4, !tbaa !31
  %3 = load i32, ptr %2, align 4, !tbaa !31
  %4 = shl i32 %3, 8
  %5 = and i32 %4, 65280
  %6 = load i32, ptr %2, align 4, !tbaa !31
  %7 = lshr i32 %6, 8
  %8 = and i32 %7, 255
  %9 = or i32 %5, %8
  %10 = shl i32 %9, 16
  %11 = load i32, ptr %2, align 4, !tbaa !31
  %12 = lshr i32 %11, 16
  %13 = shl i32 %12, 8
  %14 = and i32 %13, 65280
  %15 = load i32, ptr %2, align 4, !tbaa !31
  %16 = lshr i32 %15, 16
  %17 = lshr i32 %16, 8
  %18 = and i32 %17, 255
  %19 = or i32 %14, %18
  %20 = or i32 %10, %19
  ret i32 %20
}

; Function Attrs: inlinehint nounwind uwtable
define internal void @put_bits_no_assert(ptr noundef %0, i32 noundef %1, i32 noundef %2) #6 {
  %4 = alloca ptr, align 8
  %5 = alloca i32, align 4
  %6 = alloca i32, align 4
  %7 = alloca i32, align 4
  %8 = alloca i32, align 4
  store ptr %0, ptr %4, align 8, !tbaa !59
  store i32 %1, ptr %5, align 4, !tbaa !31
  store i32 %2, ptr %6, align 4, !tbaa !31
  call void @llvm.lifetime.start.p0(i64 4, ptr %7) #9
  call void @llvm.lifetime.start.p0(i64 4, ptr %8) #9
  %9 = load ptr, ptr %4, align 8, !tbaa !59
  %10 = getelementptr inbounds nuw %struct.PutBitContext, ptr %9, i32 0, i32 0
  %11 = load i32, ptr %10, align 8, !tbaa !66
  store i32 %11, ptr %7, align 4, !tbaa !31
  %12 = load ptr, ptr %4, align 8, !tbaa !59
  %13 = getelementptr inbounds nuw %struct.PutBitContext, ptr %12, i32 0, i32 1
  %14 = load i32, ptr %13, align 4, !tbaa !65
  store i32 %14, ptr %8, align 4, !tbaa !31
  %15 = load i32, ptr %5, align 4, !tbaa !31
  %16 = load i32, ptr %8, align 4, !tbaa !31
  %17 = icmp slt i32 %15, %16
  br i1 %17, label %18, label %27

18:                                               ; preds = %3
  %19 = load i32, ptr %7, align 4, !tbaa !31
  %20 = load i32, ptr %5, align 4, !tbaa !31
  %21 = shl i32 %19, %20
  %22 = load i32, ptr %6, align 4, !tbaa !31
  %23 = or i32 %21, %22
  store i32 %23, ptr %7, align 4, !tbaa !31
  %24 = load i32, ptr %5, align 4, !tbaa !31
  %25 = load i32, ptr %8, align 4, !tbaa !31
  %26 = sub nsw i32 %25, %24
  store i32 %26, ptr %8, align 4, !tbaa !31
  br label %65

27:                                               ; preds = %3
  %28 = load i32, ptr %8, align 4, !tbaa !31
  %29 = load i32, ptr %7, align 4, !tbaa !31
  %30 = shl i32 %29, %28
  store i32 %30, ptr %7, align 4, !tbaa !31
  %31 = load i32, ptr %6, align 4, !tbaa !31
  %32 = load i32, ptr %5, align 4, !tbaa !31
  %33 = load i32, ptr %8, align 4, !tbaa !31
  %34 = sub nsw i32 %32, %33
  %35 = lshr i32 %31, %34
  %36 = load i32, ptr %7, align 4, !tbaa !31
  %37 = or i32 %36, %35
  store i32 %37, ptr %7, align 4, !tbaa !31
  %38 = load ptr, ptr %4, align 8, !tbaa !59
  %39 = getelementptr inbounds nuw %struct.PutBitContext, ptr %38, i32 0, i32 4
  %40 = load ptr, ptr %39, align 8, !tbaa !63
  %41 = load ptr, ptr %4, align 8, !tbaa !59
  %42 = getelementptr inbounds nuw %struct.PutBitContext, ptr %41, i32 0, i32 3
  %43 = load ptr, ptr %42, align 8, !tbaa !64
  %44 = ptrtoint ptr %40 to i64
  %45 = ptrtoint ptr %43 to i64
  %46 = sub i64 %44, %45
  %47 = icmp uge i64 %46, 4
  br i1 %47, label %48, label %58

48:                                               ; preds = %27
  %49 = load i32, ptr %7, align 4, !tbaa !31
  %50 = call i32 @av_bswap32(i32 noundef %49) #11
  %51 = load ptr, ptr %4, align 8, !tbaa !59
  %52 = getelementptr inbounds nuw %struct.PutBitContext, ptr %51, i32 0, i32 3
  %53 = load ptr, ptr %52, align 8, !tbaa !64
  store i32 %50, ptr %53, align 1, !tbaa !58
  %54 = load ptr, ptr %4, align 8, !tbaa !59
  %55 = getelementptr inbounds nuw %struct.PutBitContext, ptr %54, i32 0, i32 3
  %56 = load ptr, ptr %55, align 8, !tbaa !64
  %57 = getelementptr inbounds nuw i8, ptr %56, i64 4
  store ptr %57, ptr %55, align 8, !tbaa !64
  br label %59

58:                                               ; preds = %27
  call void (ptr, i32, ptr, ...) @av_log(ptr noundef null, i32 noundef 16, ptr noundef @.str.9)
  br label %59

59:                                               ; preds = %58, %48
  %60 = load i32, ptr %5, align 4, !tbaa !31
  %61 = sub nsw i32 32, %60
  %62 = load i32, ptr %8, align 4, !tbaa !31
  %63 = add nsw i32 %62, %61
  store i32 %63, ptr %8, align 4, !tbaa !31
  %64 = load i32, ptr %6, align 4, !tbaa !31
  store i32 %64, ptr %7, align 4, !tbaa !31
  br label %65

65:                                               ; preds = %59, %18
  %66 = load i32, ptr %7, align 4, !tbaa !31
  %67 = load ptr, ptr %4, align 8, !tbaa !59
  %68 = getelementptr inbounds nuw %struct.PutBitContext, ptr %67, i32 0, i32 0
  store i32 %66, ptr %68, align 8, !tbaa !66
  %69 = load i32, ptr %8, align 4, !tbaa !31
  %70 = load ptr, ptr %4, align 8, !tbaa !59
  %71 = getelementptr inbounds nuw %struct.PutBitContext, ptr %70, i32 0, i32 1
  store i32 %69, ptr %71, align 4, !tbaa !65
  call void @llvm.lifetime.end.p0(i64 4, ptr %8) #9
  call void @llvm.lifetime.end.p0(i64 4, ptr %7) #9
  ret void
}

; Function Attrs: inlinehint nounwind uwtable
define internal void @put_bits(ptr noundef %0, i32 noundef %1, i32 noundef %2) #6 {
  %4 = alloca ptr, align 8
  %5 = alloca i32, align 4
  %6 = alloca i32, align 4
  store ptr %0, ptr %4, align 8, !tbaa !59
  store i32 %1, ptr %5, align 4, !tbaa !31
  store i32 %2, ptr %6, align 4, !tbaa !31
  %7 = load ptr, ptr %4, align 8, !tbaa !59
  %8 = load i32, ptr %5, align 4, !tbaa !31
  %9 = load i32, ptr %6, align 4, !tbaa !31
  call void @put_bits_no_assert(ptr noundef %7, i32 noundef %8, i32 noundef %9)
  ret void
}

; Function Attrs: nounwind uwtable
define internal void @put_xsub_rle(ptr noundef %0, i32 noundef %1, i32 noundef %2) #1 {
  %4 = alloca ptr, align 8
  %5 = alloca i32, align 4
  %6 = alloca i32, align 4
  store ptr %0, ptr %4, align 8, !tbaa !59
  store i32 %1, ptr %5, align 4, !tbaa !31
  store i32 %2, ptr %6, align 4, !tbaa !31
  %7 = load i32, ptr %5, align 4, !tbaa !31
  %8 = icmp sle i32 %7, 255
  br i1 %8, label %9, label %20

9:                                                ; preds = %3
  %10 = load ptr, ptr %4, align 8, !tbaa !59
  %11 = load i32, ptr %5, align 4, !tbaa !31
  %12 = sext i32 %11 to i64
  %13 = getelementptr inbounds [256 x i8], ptr @ff_log2_tab, i64 0, i64 %12
  %14 = load i8, ptr %13, align 1, !tbaa !58
  %15 = zext i8 %14 to i32
  %16 = ashr i32 %15, 1
  %17 = shl i32 %16, 2
  %18 = add nsw i32 2, %17
  %19 = load i32, ptr %5, align 4, !tbaa !31
  call void @put_bits(ptr noundef %10, i32 noundef %18, i32 noundef %19)
  br label %22

20:                                               ; preds = %3
  %21 = load ptr, ptr %4, align 8, !tbaa !59
  call void @put_bits(ptr noundef %21, i32 noundef 14, i32 noundef 0)
  br label %22

22:                                               ; preds = %20, %9
  %23 = load ptr, ptr %4, align 8, !tbaa !59
  %24 = load i32, ptr %6, align 4, !tbaa !31
  call void @put_bits(ptr noundef %23, i32 noundef 2, i32 noundef %24)
  ret void
}