; Function Attrs: nounwind uwtable
define internal fastcc void @put_xsub_rle(ptr noundef nonnull captures(none) %0, i32 noundef %1, i32 noundef range(i32 0, 4) %2) unnamed_addr #1 {
  %4 = icmp slt i32 %1, 256
  br i1 %4, label %5, label %39

5:                                                ; preds = %3
  %6 = sext i32 %1 to i64
  %7 = getelementptr inbounds [256 x i8], ptr @ff_log2_tab, i64 0, i64 %6
  %8 = load i8, ptr %7, align 1, !tbaa !46
  %9 = lshr i8 %8, 1
  %10 = zext nneg i8 %9 to i32
  %11 = shl nuw nsw i32 %10, 2
  %12 = or disjoint i32 %11, 2
  %13 = load i32, ptr %0, align 8, !tbaa !55
  %14 = getelementptr inbounds nuw i8, ptr %0, i64 4
  %15 = load i32, ptr %14, align 4, !tbaa !54
  %16 = icmp slt i32 %12, %15
  br i1 %16, label %17, label %20

17:                                               ; preds = %5
  %18 = shl i32 %13, %12
  %19 = or i32 %18, %1
  br label %put_bits.exit

20:                                               ; preds = %5
  %21 = getelementptr inbounds nuw i8, ptr %0, i64 24
  %22 = load ptr, ptr %21, align 8, !tbaa !52
  %23 = getelementptr inbounds nuw i8, ptr %0, i64 16
  %24 = load ptr, ptr %23, align 8, !tbaa !53
  %25 = ptrtoint ptr %22 to i64
  %26 = ptrtoint ptr %24 to i64
  %27 = sub i64 %25, %26
  %28 = icmp ugt i64 %27, 3
  br i1 %28, label %29, label %37

29:                                               ; preds = %20
  %30 = shl i32 %13, %15
  %31 = sub nsw i32 %12, %15
  %32 = lshr i32 %1, %31
  %33 = or i32 %32, %30
  %34 = tail call i32 @llvm.bswap.i32(i32 %33)
  store i32 %34, ptr %24, align 1, !tbaa !46
  %35 = load ptr, ptr %23, align 8, !tbaa !53
  %36 = getelementptr inbounds nuw i8, ptr %35, i64 4
  store ptr %36, ptr %23, align 8, !tbaa !53
  br label %38

37:                                               ; preds = %20
  tail call void (ptr, i32, ptr, ...) @av_log(ptr noundef null, i32 noundef 16, ptr noundef nonnull @.str.9) #8
  br label %38

38:                                               ; preds = %37, %29
  %reass.sub.i = add nsw i32 %15, 32
  br label %put_bits.exit

put_bits.exit:                                    ; preds = %17, %38
  %.026.i.i = phi i32 [ %19, %17 ], [ %1, %38 ]
  %.pn = phi i32 [ %15, %17 ], [ %reass.sub.i, %38 ]
  %.0.i.i = sub i32 %.pn, %12
  store i32 %.026.i.i, ptr %0, align 8, !tbaa !55
  store i32 %.0.i.i, ptr %14, align 4, !tbaa !54
  br label %62

39:                                               ; preds = %3
  %40 = load i32, ptr %0, align 8, !tbaa !55
  %41 = getelementptr inbounds nuw i8, ptr %0, i64 4
  %42 = load i32, ptr %41, align 4, !tbaa !54
  %43 = icmp sgt i32 %42, 14
  br i1 %43, label %44, label %46

44:                                               ; preds = %39
  %45 = shl i32 %40, 14
  br label %put_bits.exit9

46:                                               ; preds = %39
  %47 = getelementptr inbounds nuw i8, ptr %0, i64 24
  %48 = load ptr, ptr %47, align 8, !tbaa !52
  %49 = getelementptr inbounds nuw i8, ptr %0, i64 16
  %50 = load ptr, ptr %49, align 8, !tbaa !53
  %51 = ptrtoint ptr %48 to i64
  %52 = ptrtoint ptr %50 to i64
  %53 = sub i64 %51, %52
  %54 = icmp ugt i64 %53, 3
  br i1 %54, label %55, label %60

55:                                               ; preds = %46
  %56 = shl i32 %40, %42
  %57 = tail call i32 @llvm.bswap.i32(i32 %56)
  store i32 %57, ptr %50, align 1, !tbaa !46
  %58 = load ptr, ptr %49, align 8, !tbaa !53
  %59 = getelementptr inbounds nuw i8, ptr %58, i64 4
  store ptr %59, ptr %49, align 8, !tbaa !53
  br label %put_bits.exit9

60:                                               ; preds = %46
  tail call void (ptr, i32, ptr, ...) @av_log(ptr noundef null, i32 noundef 16, ptr noundef nonnull @.str.9) #8
  br label %put_bits.exit9

put_bits.exit9:                                   ; preds = %55, %60, %44
  %.sink = phi i32 [ -14, %44 ], [ 18, %60 ], [ 18, %55 ]
  %.026.i.i7 = phi i32 [ %45, %44 ], [ 0, %60 ], [ 0, %55 ]
  %61 = add nsw i32 %42, %.sink
  store i32 %.026.i.i7, ptr %0, align 8, !tbaa !55
  store i32 %61, ptr %41, align 4, !tbaa !54
  br label %62

62:                                               ; preds = %put_bits.exit9, %put_bits.exit
  %63 = phi i32 [ %61, %put_bits.exit9 ], [ %.0.i.i, %put_bits.exit ]
  %64 = phi i32 [ %.026.i.i7, %put_bits.exit9 ], [ %.026.i.i, %put_bits.exit ]
  %65 = icmp sgt i32 %63, 2
  br i1 %65, label %66, label %69

66:                                               ; preds = %62
  %67 = shl i32 %64, 2
  %68 = or disjoint i32 %67, %2
  br label %put_bits.exit13

69:                                               ; preds = %62
  %70 = getelementptr inbounds nuw i8, ptr %0, i64 24
  %71 = load ptr, ptr %70, align 8, !tbaa !52
  %72 = getelementptr inbounds nuw i8, ptr %0, i64 16
  %73 = load ptr, ptr %72, align 8, !tbaa !53
  %74 = ptrtoint ptr %71 to i64
  %75 = ptrtoint ptr %73 to i64
  %76 = sub i64 %74, %75
  %77 = icmp ugt i64 %76, 3
  br i1 %77, label %78, label %86

78:                                               ; preds = %69
  %79 = shl i32 %64, %63
  %80 = sub nsw i32 2, %63
  %81 = lshr i32 %2, %80
  %82 = or i32 %81, %79
  %83 = tail call i32 @llvm.bswap.i32(i32 %82)
  store i32 %83, ptr %73, align 1, !tbaa !46
  %84 = load ptr, ptr %72, align 8, !tbaa !53
  %85 = getelementptr inbounds nuw i8, ptr %84, i64 4
  store ptr %85, ptr %72, align 8, !tbaa !53
  br label %put_bits.exit13

86:                                               ; preds = %69
  tail call void (ptr, i32, ptr, ...) @av_log(ptr noundef null, i32 noundef 16, ptr noundef nonnull @.str.9) #8
  br label %put_bits.exit13

put_bits.exit13:                                  ; preds = %78, %86, %66
  %.sink14 = phi i32 [ -2, %66 ], [ 30, %86 ], [ 30, %78 ]
  %.026.i.i11 = phi i32 [ %68, %66 ], [ %2, %86 ], [ %2, %78 ]
  %87 = add nsw i32 %63, %.sink14
  %88 = getelementptr inbounds nuw i8, ptr %0, i64 4
  store i32 %.026.i.i11, ptr %0, align 8, !tbaa !55
  store i32 %87, ptr %88, align 4, !tbaa !54
  ret void
}